target datalayout = "e-m:e-p270:32:32-p271:32:32-p272:64:64-i64:64-i128:128-f80:128-n8:16:32:64-S128"
target triple = "x86_64-pc-linux-gnu"

%struct.ParseEnv = type { i32, i32, ptr, ptr, i32, i32, i32, ptr, ptr, ptr, ptr, ptr, i32, i32, i32, i32, [8 x %struct.MemEnv], ptr, i32, i32, i32, i32, ptr, ptr, i32, i32 }
%struct.MemEnv = type { ptr, ptr }
%struct._Node = type { %union.anon.35 }
%union.anon.35 = type { %struct.BagNode }
%struct.BagNode = type { i32, i32, ptr, ptr, i32, %union.anon.37, i32, i32, i32, i32, i32 }
%union.anon.37 = type { %struct.anon.40 }
%struct.anon.40 = type { ptr, ptr }
%struct.anon.36 = type { i32, i32, ptr, ptr }
%struct.ConsAltNode = type { i32, i32, ptr, ptr, ptr }
%struct.BackRefNode = type { i32, i32, ptr, i32, [6 x i32], ptr, i32 }
%struct.AnchorNode = type { i32, i32, ptr, ptr, i32, i32, i32, i32, ptr }

; Function Attrs: nounwind uwtable
define internal i32 @check_backrefs(ptr noundef %0, ptr noundef %1) #0 {
  %3 = alloca i32, align 4
  %4 = alloca ptr, align 8
  %5 = alloca ptr, align 8
  %6 = alloca i32, align 4
  %7 = alloca ptr, align 8
  %8 = alloca i32, align 4
  %9 = alloca i32, align 4
  %10 = alloca ptr, align 8
  %11 = alloca ptr, align 8
  %12 = alloca ptr, align 8
  store ptr %0, ptr %4, align 8, !tbaa !47
  store ptr %1, ptr %5, align 8, !tbaa !15
  call void @llvm.lifetime.start.p0(i64 4, ptr %6) #9
  %13 = load ptr, ptr %4, align 8, !tbaa !47
  %14 = getelementptr inbounds nuw %struct._Node, ptr %13, i32 0, i32 0
  %15 = getelementptr inbounds nuw %struct.anon.36, ptr %14, i32 0, i32 0
  %16 = load i32, ptr %15, align 8, !tbaa !32
  switch i32 %16, label %176 [
    i32 7, label %17
    i32 8, label %17
    i32 6, label %37
    i32 4, label %45
    i32 5, label %52
    i32 3, label %106
  ]

17:                                               ; preds = %2, %2
  br label %18

18:                                               ; preds = %34, %17
  %19 = load ptr, ptr %4, align 8, !tbaa !47
  %20 = getelementptr inbounds nuw %struct._Node, ptr %19, i32 0, i32 0
  %21 = getelementptr inbounds nuw %struct.ConsAltNode, ptr %20, i32 0, i32 3
  %22 = load ptr, ptr %21, align 8, !tbaa !32
  %23 = load ptr, ptr %5, align 8, !tbaa !15
  %24 = call i32 @check_backrefs(ptr noundef %22, ptr noundef %23)
  store i32 %24, ptr %6, align 4, !tbaa !4
  br label %25

25:                                               ; preds = %18
  %26 = load i32, ptr %6, align 4, !tbaa !4
  %27 = icmp eq i32 %26, 0
  br i1 %27, label %28, label %34

28:                                               ; preds = %25
  %29 = load ptr, ptr %4, align 8, !tbaa !47
  %30 = getelementptr inbounds nuw %struct._Node, ptr %29, i32 0, i32 0
  %31 = getelementptr inbounds nuw %struct.ConsAltNode, ptr %30, i32 0, i32 4
  %32 = load ptr, ptr %31, align 8, !tbaa !32
  store ptr %32, ptr %4, align 8, !tbaa !47
  %33 = icmp ne ptr %32, null
  br label %34

34:                                               ; preds = %28, %25
  %35 = phi i1 [ false, %25 ], [ %33, %28 ]
  br i1 %35, label %18, label %36, !llvm.loop !176

36:                                               ; preds = %34
  br label %177

37:                                               ; preds = %2
  %38 = load ptr, ptr %4, align 8, !tbaa !47
  %39 = getelementptr inbounds nuw %struct._Node, ptr %38, i32 0, i32 0
  %40 = getelementptr inbounds nuw %struct.AnchorNode, ptr %39, i32 0, i32 4
  %41 = load i32, ptr %40, align 8, !tbaa !32
  %42 = icmp slt i32 %41, 16
  br i1 %42, label %44, label %43

43:                                               ; preds = %37
  store i32 0, ptr %6, align 4, !tbaa !4
  br label %177

44:                                               ; preds = %37
  br label %45

45:                                               ; preds = %2, %44
  %46 = load ptr, ptr %4, align 8, !tbaa !47
  %47 = getelementptr inbounds nuw %struct._Node, ptr %46, i32 0, i32 0
  %48 = getelementptr inbounds nuw %struct.anon.36, ptr %47, i32 0, i32 3
  %49 = load ptr, ptr %48, align 8, !tbaa !32
  %50 = load ptr, ptr %5, align 8, !tbaa !15
  %51 = call i32 @check_backrefs(ptr noundef %49, ptr noundef %50)
  store i32 %51, ptr %6, align 4, !tbaa !4
  br label %177

52:                                               ; preds = %2
  %53 = load ptr, ptr %4, align 8, !tbaa !47
  %54 = getelementptr inbounds nuw %struct._Node, ptr %53, i32 0, i32 0
  %55 = getelementptr inbounds nuw %struct.anon.36, ptr %54, i32 0, i32 3
  %56 = load ptr, ptr %55, align 8, !tbaa !32
  %57 = load ptr, ptr %5, align 8, !tbaa !15
  %58 = call i32 @check_backrefs(ptr noundef %56, ptr noundef %57)
  store i32 %58, ptr %6, align 4, !tbaa !4
  call void @llvm.lifetime.start.p0(i64 8, ptr %7) #9
  %59 = load ptr, ptr %4, align 8, !tbaa !47
  %60 = getelementptr inbounds nuw %struct._Node, ptr %59, i32 0, i32 0
  store ptr %60, ptr %7, align 8, !tbaa !15
  %61 = load ptr, ptr %7, align 8, !tbaa !15
  %62 = getelementptr inbounds nuw %struct.BagNode, ptr %61, i32 0, i32 4
  %63 = load i32, ptr %62, align 8, !tbaa !156
  %64 = icmp eq i32 %63, 3
  br i1 %64, label %65, label %102

65:                                               ; preds = %52
  %66 = load i32, ptr %6, align 4, !tbaa !4
  %67 = icmp ne i32 %66, 0
  br i1 %67, label %68, label %70

68:                                               ; preds = %65
  %69 = load i32, ptr %6, align 4, !tbaa !4
  store i32 %69, ptr %3, align 4
  store i32 1, ptr %8, align 4
  br label %103

70:                                               ; preds = %65
  %71 = load ptr, ptr %7, align 8, !tbaa !15
  %72 = getelementptr inbounds nuw %struct.BagNode, ptr %71, i32 0, i32 5
  %73 = getelementptr inbounds nuw %struct.anon.40, ptr %72, i32 0, i32 0
  %74 = load ptr, ptr %73, align 8, !tbaa !32
  %75 = icmp ne ptr %74, null
  br i1 %75, label %76, label %88

76:                                               ; preds = %70
  %77 = load ptr, ptr %7, align 8, !tbaa !15
  %78 = getelementptr inbounds nuw %struct.BagNode, ptr %77, i32 0, i32 5
  %79 = getelementptr inbounds nuw %struct.anon.40, ptr %78, i32 0, i32 0
  %80 = load ptr, ptr %79, align 8, !tbaa !32
  %81 = load ptr, ptr %5, align 8, !tbaa !15
  %82 = call i32 @check_backrefs(ptr noundef %80, ptr noundef %81)
  store i32 %82, ptr %6, align 4, !tbaa !4
  %83 = load i32, ptr %6, align 4, !tbaa !4
  %84 = icmp ne i32 %83, 0
  br i1 %84, label %85, label %87

85:                                               ; preds = %76
  %86 = load i32, ptr %6, align 4, !tbaa !4
  store i32 %86, ptr %3, align 4
  store i32 1, ptr %8, align 4
  br label %103

87:                                               ; preds = %76
  br label %88

88:                                               ; preds = %87, %70
  %89 = load ptr, ptr %7, align 8, !tbaa !15
  %90 = getelementptr inbounds nuw %struct.BagNode, ptr %89, i32 0, i32 5
  %91 = getelementptr inbounds nuw %struct.anon.40, ptr %90, i32 0, i32 1
  %92 = load ptr, ptr %91, align 8, !tbaa !32
  %93 = icmp ne ptr %92, null
  br i1 %93, label %94, label %101

94:                                               ; preds = %88
  %95 = load ptr, ptr %7, align 8, !tbaa !15
  %96 = getelementptr inbounds nuw %struct.BagNode, ptr %95, i32 0, i32 5
  %97 = getelementptr inbounds nuw %struct.anon.40, ptr %96, i32 0, i32 1
  %98 = load ptr, ptr %97, align 8, !tbaa !32
  %99 = load ptr, ptr %5, align 8, !tbaa !15
  %100 = call i32 @check_backrefs(ptr noundef %98, ptr noundef %99)
  store i32 %100, ptr %6, align 4, !tbaa !4
  br label %101

101:                                              ; preds = %94, %88
  br label %102

102:                                              ; preds = %101, %52
  store i32 0, ptr %8, align 4
  br label %103

103:                                              ; preds = %102, %85, %68
  call void @llvm.lifetime.end.p0(i64 8, ptr %7) #9
  %104 = load i32, ptr %8, align 4
  switch i32 %104, label %179 [
    i32 0, label %105
  ]

105:                                              ; preds = %103
  br label %177

106:                                              ; preds = %2
  call void @llvm.lifetime.start.p0(i64 4, ptr %9) #9
  call void @llvm.lifetime.start.p0(i64 8, ptr %10) #9
  %107 = load ptr, ptr %4, align 8, !tbaa !47
  %108 = getelementptr inbounds nuw %struct._Node, ptr %107, i32 0, i32 0
  store ptr %108, ptr %10, align 8, !tbaa !15
  call void @llvm.lifetime.start.p0(i64 8, ptr %11) #9
  %109 = load ptr, ptr %10, align 8, !tbaa !15
  %110 = getelementptr inbounds nuw %struct.BackRefNode, ptr %109, i32 0, i32 5
  %111 = load ptr, ptr %110, align 8, !tbaa !105
  %112 = icmp ne ptr %111, null
  br i1 %112, label %113, label %117

113:                                              ; preds = %106
  %114 = load ptr, ptr %10, align 8, !tbaa !15
  %115 = getelementptr inbounds nuw %struct.BackRefNode, ptr %114, i32 0, i32 5
  %116 = load ptr, ptr %115, align 8, !tbaa !105
  br label %121

117:                                              ; preds = %106
  %118 = load ptr, ptr %10, align 8, !tbaa !15
  %119 = getelementptr inbounds nuw %struct.BackRefNode, ptr %118, i32 0, i32 4
  %120 = getelementptr inbounds [6 x i32], ptr %119, i64 0, i64 0
  br label %121

121:                                              ; preds = %117, %113
  %122 = phi ptr [ %116, %113 ], [ %120, %117 ]
  store ptr %122, ptr %11, align 8, !tbaa !104
  call void @llvm.lifetime.start.p0(i64 8, ptr %12) #9
  %123 = load ptr, ptr %5, align 8, !tbaa !15
  %124 = getelementptr inbounds nuw %struct.ParseEnv, ptr %123, i32 0, i32 17
  %125 = load ptr, ptr %124, align 8, !tbaa !50
  %126 = icmp ne ptr %125, null
  br i1 %126, label %127, label %131

127:                                              ; preds = %121
  %128 = load ptr, ptr %5, align 8, !tbaa !15
  %129 = getelementptr inbounds nuw %struct.ParseEnv, ptr %128, i32 0, i32 17
  %130 = load ptr, ptr %129, align 8, !tbaa !50
  br label %135

131:                                              ; preds = %121
  %132 = load ptr, ptr %5, align 8, !tbaa !15
  %133 = getelementptr inbounds nuw %struct.ParseEnv, ptr %132, i32 0, i32 16
  %134 = getelementptr inbounds [8 x %struct.MemEnv], ptr %133, i64 0, i64 0
  br label %135

135:                                              ; preds = %131, %127
  %136 = phi ptr [ %130, %127 ], [ %134, %131 ]
  store ptr %136, ptr %12, align 8, !tbaa !15
  store i32 0, ptr %9, align 4, !tbaa !4
  br label %137

137:                                              ; preds = %169, %135
  %138 = load i32, ptr %9, align 4, !tbaa !4
  %139 = load ptr, ptr %10, align 8, !tbaa !15
  %140 = getelementptr inbounds nuw %struct.BackRefNode, ptr %139, i32 0, i32 3
  %141 = load i32, ptr %140, align 8, !tbaa !103
  %142 = icmp slt i32 %138, %141
  br i1 %142, label %143, label %172

143:                                              ; preds = %137
  %144 = load ptr, ptr %11, align 8, !tbaa !104
  %145 = load i32, ptr %9, align 4, !tbaa !4
  %146 = sext i32 %145 to i64
  %147 = getelementptr inbounds i32, ptr %144, i64 %146
  %148 = load i32, ptr %147, align 4, !tbaa !4
  %149 = load ptr, ptr %5, align 8, !tbaa !15
  %150 = getelementptr inbounds nuw %struct.ParseEnv, ptr %149, i32 0, i32 13
  %151 = load i32, ptr %150, align 4, !tbaa !67
  %152 = icmp sgt i32 %148, %151
  br i1 %152, label %153, label %154

153:                                              ; preds = %143
  store i32 -208, ptr %3, align 4
  store i32 1, ptr %8, align 4
  br label %173

154:                                              ; preds = %143
  %155 = load ptr, ptr %12, align 8, !tbaa !15
  %156 = load ptr, ptr %11, align 8, !tbaa !104
  %157 = load i32, ptr %9, align 4, !tbaa !4
  %158 = sext i32 %157 to i64
  %159 = getelementptr inbounds i32, ptr %156, i64 %158
  %160 = load i32, ptr %159, align 4, !tbaa !4
  %161 = sext i32 %160 to i64
  %162 = getelementptr inbounds %struct.MemEnv, ptr %155, i64 %161
  %163 = getelementptr inbounds nuw %struct.MemEnv, ptr %162, i32 0, i32 0
  %164 = load ptr, ptr %163, align 8, !tbaa !177
  %165 = getelementptr inbounds nuw %struct._Node, ptr %164, i32 0, i32 0
  %166 = getelementptr inbounds nuw %struct.anon.36, ptr %165, i32 0, i32 1
  %167 = load i32, ptr %166, align 4, !tbaa !32
  %168 = or i32 %167, 65536
  store i32 %168, ptr %166, align 4, !tbaa !32
  br label %169

169:                                              ; preds = %154
  %170 = load i32, ptr %9, align 4, !tbaa !4
  %171 = add nsw i32 %170, 1
  store i32 %171, ptr %9, align 4, !tbaa !4
  br label %137, !llvm.loop !179

172:                                              ; preds = %137
  store i32 0, ptr %6, align 4, !tbaa !4
  store i32 0, ptr %8, align 4
  br label %173

173:                                              ; preds = %172, %153
  call void @llvm.lifetime.end.p0(i64 8, ptr %12) #9
  call void @llvm.lifetime.end.p0(i64 8, ptr %11) #9
  call void @llvm.lifetime.end.p0(i64 8, ptr %10) #9
  call void @llvm.lifetime.end.p0(i64 4, ptr %9) #9
  %174 = load i32, ptr %8, align 4
  switch i32 %174, label %179 [
    i32 0, label %175
  ]

175:                                              ; preds = %173
  br label %177

176:                                              ; preds = %2
  store i32 0, ptr %6, align 4, !tbaa !4
  br label %177

177:                                              ; preds = %176, %175, %105, %45, %43, %36
  %178 = load i32, ptr %6, align 4, !tbaa !4
  store i32 %178, ptr %3, align 4
  store i32 1, ptr %8, align 4
  br label %179

179:                                              ; preds = %177, %173, %103
  call void @llvm.lifetime.end.p0(i64 4, ptr %6) #9
  %180 = load i32, ptr %3, align 4
  ret i32 %180
}