; Function Attrs: nofree nosync nounwind memory(readwrite, inaccessiblemem: none) uwtable
define internal fastcc range(i32 -208, 1) i32 @check_backrefs(ptr noundef readonly captures(none) %0, ptr noundef nonnull %1) unnamed_addr #15 {
  br label %tailrecurse

tailrecurse:                                      ; preds = %tailrecurse.backedge, %2
  %.tr = phi ptr [ %0, %2 ], [ %.tr.be, %tailrecurse.backedge ]
  %3 = load i32, ptr %.tr, align 8, !tbaa !20
  switch i32 %3, label %.critedge [
    i32 7, label %.preheader
    i32 8, label %.preheader
    i32 6, label %12
    i32 4, label %16
    i32 5, label %19
    i32 3, label %34
  ]

.preheader:                                       ; preds = %tailrecurse, %tailrecurse
  br label %4

4:                                                ; preds = %.preheader, %9
  %.042 = phi ptr [ %11, %9 ], [ %.tr, %.preheader ]
  %5 = getelementptr inbounds nuw i8, ptr %.042, i64 16
  %6 = load ptr, ptr %5, align 8, !tbaa !20
  %7 = tail call fastcc i32 @check_backrefs(ptr noundef %6, ptr noundef %1)
  %8 = icmp eq i32 %7, 0
  br i1 %8, label %9, label %.critedge

9:                                                ; preds = %4
  %10 = getelementptr inbounds nuw i8, ptr %.042, i64 24
  %11 = load ptr, ptr %10, align 8, !tbaa !20
  %.not67 = icmp eq ptr %11, null
  br i1 %.not67, label %.critedge, label %4, !llvm.loop !204

12:                                               ; preds = %tailrecurse
  %13 = getelementptr inbounds nuw i8, ptr %.tr, i64 24
  %14 = load i32, ptr %13, align 8, !tbaa !20
  %15 = icmp slt i32 %14, 16
  br i1 %15, label %16, label %.critedge

16:                                               ; preds = %12, %tailrecurse
  %17 = getelementptr inbounds nuw i8, ptr %.tr, i64 16
  %18 = load ptr, ptr %17, align 8, !tbaa !20
  br label %tailrecurse.backedge

tailrecurse.backedge:                             ; preds = %16, %31
  %.tr.be = phi ptr [ %18, %16 ], [ %33, %31 ]
  br label %tailrecurse

19:                                               ; preds = %tailrecurse
  %20 = getelementptr inbounds nuw i8, ptr %.tr, i64 16
  %21 = load ptr, ptr %20, align 8, !tbaa !20
  %22 = tail call fastcc i32 @check_backrefs(ptr noundef %21, ptr noundef %1)
  %23 = getelementptr inbounds nuw i8, ptr %.tr, i64 24
  %24 = load i32, ptr %23, align 8, !tbaa !98
  %25 = icmp eq i32 %24, 3
  %.not63 = icmp eq i32 %22, 0
  %or.cond = select i1 %25, i1 %.not63, i1 false
  br i1 %or.cond, label %26, label %.critedge

26:                                               ; preds = %19
  %27 = getelementptr inbounds nuw i8, ptr %.tr, i64 32
  %28 = load ptr, ptr %27, align 8, !tbaa !20
  %.not64 = icmp eq ptr %28, null
  br i1 %.not64, label %31, label %29

29:                                               ; preds = %26
  %30 = tail call fastcc i32 @check_backrefs(ptr noundef nonnull %28, ptr noundef %1)
  %.not65 = icmp eq i32 %30, 0
  br i1 %.not65, label %31, label %.critedge

31:                                               ; preds = %29, %26
  %32 = getelementptr inbounds nuw i8, ptr %.tr, i64 40
  %33 = load ptr, ptr %32, align 8, !tbaa !20
  %.not66 = icmp eq ptr %33, null
  br i1 %.not66, label %.critedge, label %tailrecurse.backedge

34:                                               ; preds = %tailrecurse
  %35 = getelementptr inbounds nuw i8, ptr %.tr, i64 48
  %36 = load ptr, ptr %35, align 8, !tbaa !131
  %.not = icmp eq ptr %36, null
  %37 = getelementptr inbounds nuw i8, ptr %.tr, i64 20
  %38 = select i1 %.not, ptr %37, ptr %36
  %39 = getelementptr inbounds nuw i8, ptr %1, i64 224
  %40 = load ptr, ptr %39, align 8, !tbaa !89
  %.not61 = icmp eq ptr %40, null
  %41 = getelementptr inbounds nuw i8, ptr %1, i64 96
  %42 = select i1 %.not61, ptr %41, ptr %40
  %43 = getelementptr inbounds nuw i8, ptr %.tr, i64 16
  %44 = load i32, ptr %43, align 8, !tbaa !130
  %.not6279 = icmp sgt i32 %44, 0
  br i1 %.not6279, label %.lr.ph, label %.critedge

.lr.ph:                                           ; preds = %34
  %45 = getelementptr inbounds nuw i8, ptr %1, i64 84
  br label %46

46:                                               ; preds = %.lr.ph, %51
  %indvars.iv = phi i64 [ 0, %.lr.ph ], [ %indvars.iv.next, %51 ]
  %47 = getelementptr inbounds nuw i32, ptr %38, i64 %indvars.iv
  %48 = load i32, ptr %47, align 4, !tbaa !4
  %49 = load i32, ptr %45, align 4, !tbaa !106
  %50 = icmp sgt i32 %48, %49
  br i1 %50, label %.critedge, label %51

51:                                               ; preds = %46
  %52 = sext i32 %48 to i64
  %53 = getelementptr inbounds %struct.MemEnv, ptr %42, i64 %52
  %54 = load ptr, ptr %53, align 8, !tbaa !205
  %55 = getelementptr inbounds nuw i8, ptr %54, i64 4
  %56 = load i32, ptr %55, align 4, !tbaa !20
  %57 = or i32 %56, 65536
  store i32 %57, ptr %55, align 4, !tbaa !20
  %indvars.iv.next = add nuw nsw i64 %indvars.iv, 1
  %58 = load i32, ptr %43, align 8, !tbaa !130
  %59 = sext i32 %58 to i64
  %.not62 = icmp slt i64 %indvars.iv.next, %59
  br i1 %.not62, label %46, label %.critedge, !llvm.loop !207

.critedge:                                        ; preds = %19, %31, %12, %tailrecurse, %29, %46, %51, %9, %4, %34
  %.1 = phi i32 [ 0, %34 ], [ %7, %4 ], [ 0, %9 ], [ -208, %46 ], [ 0, %51 ], [ 0, %31 ], [ %22, %19 ], [ 0, %tailrecurse ], [ 0, %12 ], [ %30, %29 ]
  ret i32 %.1
}